-----BEGIN CERTIFICATE-----
MIIDXzCCAkegAwIBAgIJAI3CpkydLU4wMA0GCSqGSIb3DQEBBQUAMGYxCzAJBgNV
BAYTAkNOMREwDwYDVQQIDAh6aGVqaWFuZzERMA8GA1UEBwwIaGFuZ3pob3UxDzAN
BgNVBAoMBnlvdXphbjEPMA0GA1UECwwGbW9iaWxlMQ8wDQYDVQQDDAZtb2JpbGUw
HhcNMTgxMDA5MTUwNzI1WhcNMjgxMDA2MTUwNzI1WjBmMQswCQYDVQQGEwJDTjER
MA8GA1UECAwIemhlamlhbmcxETAPBgNVBAcMCGhhbmd6aG91MQ8wDQYDVQQKDAZ5
b3V6YW4xDzANBgNVBAsMBm1vYmlsZTEPMA0GA1UEAwwGbW9iaWxlMIIBIjANBgkq
hkiG9w0BAQEFAAOCAQ8AMIIBCgKCAQEAspETCIyHizqvnvqrjcCh69iL2Lg7aF+G
zAlrauvHy8sNA5S1wjh49Sv3Vqe8Cr3fFjeCHwcBLfp6AdhDwUUItEYgomSBhr4q
XFtPkU8MM2pzLRp3tIIgfZHC2BSviKSbo9JfGJrl+1kyXrlHZ9GgTO1aof8db0SQ
AUso/AIL3h95ca22LqDrStabjSRJh1vQm8QdoIZ4uUchx49CZ2R1iWgCEsnKNvkD
67c/YthwuGiVxGshEF90uwcbPQcT99NtQrpqbqkTFkE3ZotHQMAVFiJDrMtjCPWX
NOB1kBqPwGrpui62upsuSzxN8R+6N7gQfUtSy1cDGBnlSVMkFZ9kgQIDAQABoxAw
DjAMBgNVHRMEBTADAQH/MA0GCSqGSIb3DQEBBQUAA4IBAQA9wbtyAqQbsQcPJpZE
/V0ThNLUX+hXzcyBYuN1ZFvBPpxIrit8Ik+iGIxme6x1EJnEvzBQ6EWn34IGgiM5
hBOmhnVbgRUktMLKIChmyX7EuWVXlClldnp0CRmanFmLmsn+8OVzJHOsSQObEmnW
R9W8cfZNWQ5rrKc76NmbMP4cATw3hza+AcZyGiUyTsrQ0wiby4TqpTJqx1ZYuzzV
IKUNdUKeQ2gZM0JFhU6QWUth3eQNHeWoAJphUnpkKziiiA+w90dYtRfFCGG54Maf
yPtL3ylUW1PDnHnVQbjKUAzGrAoKRh1/TAnWb9qcv4haJ5pCRu7at+f0R83Fu1iB
o9DZ
-----END CERTIFICATE-----
Certificate:
    Data:
        Version: 3 (0x2)
        Serial Number: 10214909752814423600 (0x8dc2a64c9d2d4e30)
    Signature Algorithm: sha1WithRSAEncryption
        Issuer: C=CN, ST=zhejiang, L=hangzhou, O=youzan, OU=mobile, CN=mobile
        Validity
            Not Before: Oct  9 15:07:25 2018 GMT
            Not After : Oct  6 15:07:25 2028 GMT
        Subject: C=CN, ST=zhejiang, L=hangzhou, O=youzan, OU=mobile, CN=mobile
        Subject Public Key Info:
            Public Key Algorithm: rsaEncryption
                Public-Key: (2048 bit)
                Modulus:
                    00:b2:91:13:08:8c:87:8b:3a:af:9e:fa:ab:8d:c0:
                    a1:eb:d8:8b:d8:b8:3b:68:5f:86:cc:09:6b:6a:eb:
                    c7:cb:cb:0d:03:94:b5:c2:38:78:f5:2b:f7:56:a7:
                    bc:0a:bd:df:16:37:82:1f:07:01:2d:fa:7a:01:d8:
                    43:c1:45:08:b4:46:20:a2:64:81:86:be:2a:5c:5b:
                    4f:91:4f:0c:33:6a:73:2d:1a:77:b4:82:20:7d:91:
                    c2:d8:14:af:88:a4:9b:a3:d2:5f:18:9a:e5:fb:59:
                    32:5e:b9:47:67:d1:a0:4c:ed:5a:a1:ff:1d:6f:44:
                    90:01:4b:28:fc:02:0b:de:1f:79:71:ad:b6:2e:a0:
                    eb:4a:d6:9b:8d:24:49:87:5b:d0:9b:c4:1d:a0:86:
                    78:b9:47:21:c7:8f:42:67:64:75:89:68:02:12:c9:
                    ca:36:f9:03:eb:b7:3f:62:d8:70:b8:68:95:c4:6b:
                    21:10:5f:74:bb:07:1b:3d:07:13:f7:d3:6d:42:ba:
                    6a:6e:a9:13:16:41:37:66:8b:47:40:c0:15:16:22:
                    43:ac:cb:63:08:f5:97:34:e0:75:90:1a:8f:c0:6a:
                    e9:ba:2e:b6:ba:9b:2e:4b:3c:4d:f1:1f:ba:37:b8:
                    10:7d:4b:52:cb:57:03:18:19:e5:49:53:24:15:9f:
                    64:81
                Exponent: 65537 (0x10001)
        X509v3 extensions:
            X509v3 Basic Constraints: 
                CA:TRUE
    Signature Algorithm: sha1WithRSAEncryption
         3d:c1:bb:72:02:a4:1b:b1:07:0f:26:96:44:fd:5d:13:84:d2:
         d4:5f:e8:57:cd:cc:81:62:e3:75:64:5b:c1:3e:9c:48:ae:2b:
         7c:22:4f:a2:18:8c:66:7b:ac:75:10:99:c4:bf:30:50:e8:45:
         a7:df:82:06:82:23:39:84:13:a6:86:75:5b:81:15:24:b4:c2:
         ca:20:28:66:c9:7e:c4:b9:65:57:94:29:65:76:7a:74:09:19:
         9a:9c:59:8b:9a:c9:fe:f0:e5:73:24:73:ac:49:03:9b:12:69:
         d6:47:d5:bc:71:f6:4d:59:0e:6b:ac:a7:3b:e8:d9:9b:30:fe:
         1c:01:3c:37:87:36:be:01:c6:72:1a:25:32:4e:ca:d0:d3:08:
         9b:cb:84:ea:a5:32:6a:c7:56:58:bb:3c:d5:20:a5:0d:75:42:
         9e:43:68:19:33:42:45:85:4e:90:59:4b:61:dd:e4:0d:1d:e5:
         a8:00:9a:61:52:7a:64:2b:38:a2:88:0f:b0:f7:47:58:b5:17:
         c5:08:61:b9:e0:c6:9f:c8:fb:4b:df:29:54:5b:53:c3:9c:79:
         d5:41:b8:ca:50:0c:c6:ac:0a:0a:46:1d:7f:4c:09:d6:6f:da:
         9c:bf:88:5a:27:9a:42:46:ee:da:b7:e7:f4:47:cd:c5:bb:58:
         81:a3:d0:d9
